target datalayout = "e-m:e-p270:32:32-p271:32:32-p272:64:64-i64:64-i128:128-f80:128-n8:16:32:64-S128"
target triple = "x86_64-pc-linux-gnu"

%class.GPUShader = type <{ %"class.std::__cxx11::basic_string", i32, i32, i8, i8, [6 x i8] }>
%"class.std::__cxx11::basic_string" = type { %"struct.std::__cxx11::basic_string<char>::_Alloc_hider", i64, %union.anon }
%"struct.std::__cxx11::basic_string<char>::_Alloc_hider" = type { ptr }
%union.anon = type { i64, [8 x i8] }

@__glewDeleteShader = external global ptr, align 8

; Function Attrs: mustprogress nounwind uwtable
define void @_ZN9GPUShaderD2Ev(ptr noundef nonnull align 8 dereferenceable(42) %0) unnamed_addr #5 align 2 personality ptr @__gxx_personality_v0 {
  %2 = alloca ptr, align 8
  store ptr %0, ptr %2, align 8
  %3 = load ptr, ptr %2, align 8
  %4 = getelementptr inbounds %class.GPUShader, ptr %3, i32 0, i32 4
  %5 = load i8, ptr %4, align 1
  %6 = trunc i8 %5 to i1
  br i1 %6, label %7, label %12

7:                                                ; preds = %1
  %8 = load ptr, ptr @__glewDeleteShader, align 8
  %9 = getelementptr inbounds %class.GPUShader, ptr %3, i32 0, i32 2
  %10 = load i32, ptr %9, align 4
  invoke void %8(i32 noundef %10)
          to label %11 unwind label %14

11:                                               ; preds = %7
  br label %12

12:                                               ; preds = %11, %1
  %13 = getelementptr inbounds %class.GPUShader, ptr %3, i32 0, i32 0
  call void @_ZNSt7__cxx1112basic_stringIcSt11char_traitsIcESaIcEED1Ev(ptr noundef nonnull align 8 dereferenceable(32) %13) #3
  ret void

14:                                               ; preds = %7
  %15 = landingpad { ptr, i32 }
          catch ptr null
  %16 = extractvalue { ptr, i32 } %15, 0
  call void @__clang_call_terminate(ptr %16) #9
  unreachable
}