; Function Attrs: mustprogress nounwind uwtable
define void @_ZN9GPUShaderD2Ev(ptr noundef nonnull align 8 dereferenceable(42) %0) unnamed_addr #4 align 2 personality ptr @__gxx_personality_v0 {
  %2 = getelementptr inbounds nuw i8, ptr %0, i64 41
  %3 = load i8, ptr %2, align 1
  %4 = trunc i8 %3 to i1
  br i1 %4, label %5, label %9

5:                                                ; preds = %1
  %6 = load ptr, ptr @__glewDeleteShader, align 8
  %7 = getelementptr inbounds nuw i8, ptr %0, i64 36
  %8 = load i32, ptr %7, align 4
  invoke void %6(i32 noundef %8)
          to label %9 unwind label %10

9:                                                ; preds = %5, %1
  tail call void @_ZNSt7__cxx1112basic_stringIcSt11char_traitsIcESaIcEED1Ev(ptr noundef nonnull align 8 dereferenceable(32) %0) #13
  ret void

10:                                               ; preds = %5
  %11 = landingpad { ptr, i32 }
          catch ptr null
  %12 = extractvalue { ptr, i32 } %11, 0
  tail call void @__clang_call_terminate(ptr %12) #14
  unreachable
}